; Function Attrs: nofree norecurse nosync nounwind memory(readwrite, inaccessiblemem: none) uwtable
define internal void @Blit555to555SurfaceAlpha(ptr noundef readonly captures(none) %0) #2 {
  %2 = getelementptr inbounds nuw i8, ptr %0, i64 123
  %3 = load i8, ptr %2, align 1
  %4 = icmp eq i8 %3, -128
  br i1 %4, label %5, label %6

5:                                                ; preds = %1
  tail call fastcc void @Blit16to16SurfaceAlpha128(ptr noundef nonnull %0, i16 noundef zeroext -1058)
  br label %.loopexit

6:                                                ; preds = %1
  %7 = getelementptr inbounds nuw i8, ptr %0, i64 52
  %8 = load i32, ptr %7, align 4
  %9 = lshr i8 %3, 3
  %10 = zext nneg i8 %9 to i32
  %.not85 = icmp eq i32 %8, 0
  br i1 %.not85, label %.loopexit, label %.lr.ph

.lr.ph:                                           ; preds = %6
  %11 = getelementptr inbounds nuw i8, ptr %0, i64 60
  %12 = load i32, ptr %11, align 4
  %13 = ashr i32 %12, 1
  %14 = getelementptr inbounds nuw i8, ptr %0, i64 40
  %15 = load ptr, ptr %14, align 8
  %16 = getelementptr inbounds nuw i8, ptr %0, i64 28
  %17 = load i32, ptr %16, align 4
  %18 = ashr i32 %17, 1
  %19 = getelementptr inbounds nuw i8, ptr %0, i64 8
  %20 = load ptr, ptr %19, align 8
  %21 = getelementptr inbounds nuw i8, ptr %0, i64 48
  %22 = load i32, ptr %21, align 8
  %23 = add nsw i32 %22, 3
  %24 = sdiv i32 %23, 4
  %25 = and i32 %22, 3
  %26 = sext i32 %18 to i64
  %27 = sext i32 %13 to i64
  br label %28

28:                                               ; preds = %.lr.ph, %116
  %.in = phi i32 [ %8, %.lr.ph ], [ %29, %116 ]
  %.07387 = phi ptr [ %20, %.lr.ph ], [ %117, %116 ]
  %.07486 = phi ptr [ %15, %.lr.ph ], [ %118, %116 ]
  %29 = add nsw i32 %.in, -1
  switch i32 %25, label %default.unreachable88 [
    i32 0, label %30
    i32 3, label %51
    i32 2, label %72
    i32 1, label %93
  ]

30:                                               ; preds = %28, %93
  %.382 = phi i32 [ %114, %93 ], [ %24, %28 ]
  %.478 = phi ptr [ %113, %93 ], [ %.07486, %28 ]
  %.4 = phi ptr [ %94, %93 ], [ %.07387, %28 ]
  %31 = getelementptr inbounds nuw i8, ptr %.4, i64 2
  %32 = load i16, ptr %.4, align 2
  %33 = zext i16 %32 to i32
  %34 = load i16, ptr %.478, align 2
  %35 = zext i16 %34 to i32
  %36 = shl nuw i32 %33, 16
  %37 = or disjoint i32 %36, %33
  %38 = and i32 %37, 65043487
  %39 = shl nuw i32 %35, 16
  %40 = or disjoint i32 %39, %35
  %41 = and i32 %40, 65043487
  %42 = sub nsw i32 %38, %41
  %43 = mul nsw i32 %42, %10
  %44 = lshr i32 %43, 5
  %45 = add nuw nsw i32 %44, %41
  %46 = and i32 %45, 65043487
  %47 = lshr i32 %46, 16
  %48 = or disjoint i32 %47, %46
  %49 = trunc i32 %48 to i16
  %50 = getelementptr inbounds nuw i8, ptr %.478, i64 2
  store i16 %49, ptr %.478, align 2
  br label %51

51:                                               ; preds = %30, %28
  %.079 = phi i32 [ %.382, %30 ], [ %24, %28 ]
  %.175 = phi ptr [ %50, %30 ], [ %.07486, %28 ]
  %.1 = phi ptr [ %31, %30 ], [ %.07387, %28 ]
  %52 = getelementptr inbounds nuw i8, ptr %.1, i64 2
  %53 = load i16, ptr %.1, align 2
  %54 = zext i16 %53 to i32
  %55 = load i16, ptr %.175, align 2
  %56 = zext i16 %55 to i32
  %57 = shl nuw i32 %54, 16
  %58 = or disjoint i32 %57, %54
  %59 = and i32 %58, 65043487
  %60 = shl nuw i32 %56, 16
  %61 = or disjoint i32 %60, %56
  %62 = and i32 %61, 65043487
  %63 = sub nsw i32 %59, %62
  %64 = mul nsw i32 %63, %10
  %65 = lshr i32 %64, 5
  %66 = add nuw nsw i32 %65, %62
  %67 = and i32 %66, 65043487
  %68 = lshr i32 %67, 16
  %69 = or disjoint i32 %68, %67
  %70 = trunc i32 %69 to i16
  %71 = getelementptr inbounds nuw i8, ptr %.175, i64 2
  store i16 %70, ptr %.175, align 2
  br label %72

72:                                               ; preds = %51, %28
  %.180 = phi i32 [ %.079, %51 ], [ %24, %28 ]
  %.276 = phi ptr [ %71, %51 ], [ %.07486, %28 ]
  %.2 = phi ptr [ %52, %51 ], [ %.07387, %28 ]
  %73 = getelementptr inbounds nuw i8, ptr %.2, i64 2
  %74 = load i16, ptr %.2, align 2
  %75 = zext i16 %74 to i32
  %76 = load i16, ptr %.276, align 2
  %77 = zext i16 %76 to i32
  %78 = shl nuw i32 %75, 16
  %79 = or disjoint i32 %78, %75
  %80 = and i32 %79, 65043487
  %81 = shl nuw i32 %77, 16
  %82 = or disjoint i32 %81, %77
  %83 = and i32 %82, 65043487
  %84 = sub nsw i32 %80, %83
  %85 = mul nsw i32 %84, %10
  %86 = lshr i32 %85, 5
  %87 = add nuw nsw i32 %86, %83
  %88 = and i32 %87, 65043487
  %89 = lshr i32 %88, 16
  %90 = or disjoint i32 %89, %88
  %91 = trunc i32 %90 to i16
  %92 = getelementptr inbounds nuw i8, ptr %.276, i64 2
  store i16 %91, ptr %.276, align 2
  br label %93

93:                                               ; preds = %72, %28
  %.281 = phi i32 [ %24, %28 ], [ %.180, %72 ]
  %.377 = phi ptr [ %.07486, %28 ], [ %92, %72 ]
  %.3 = phi ptr [ %.07387, %28 ], [ %73, %72 ]
  %94 = getelementptr inbounds nuw i8, ptr %.3, i64 2
  %95 = load i16, ptr %.3, align 2
  %96 = zext i16 %95 to i32
  %97 = load i16, ptr %.377, align 2
  %98 = zext i16 %97 to i32
  %99 = shl nuw i32 %96, 16
  %100 = or disjoint i32 %99, %96
  %101 = and i32 %100, 65043487
  %102 = shl nuw i32 %98, 16
  %103 = or disjoint i32 %102, %98
  %104 = and i32 %103, 65043487
  %105 = sub nsw i32 %101, %104
  %106 = mul nsw i32 %105, %10
  %107 = lshr i32 %106, 5
  %108 = add nuw nsw i32 %107, %104
  %109 = and i32 %108, 65043487
  %110 = lshr i32 %109, 16
  %111 = or disjoint i32 %110, %109
  %112 = trunc i32 %111 to i16
  %113 = getelementptr inbounds nuw i8, ptr %.377, i64 2
  store i16 %112, ptr %.377, align 2
  %114 = add nsw i32 %.281, -1
  %115 = icmp sgt i32 %.281, 1
  br i1 %115, label %30, label %116, !llvm.loop !22

default.unreachable88:                            ; preds = %28
  unreachable

116:                                              ; preds = %93
  %117 = getelementptr inbounds i16, ptr %94, i64 %26
  %118 = getelementptr inbounds i16, ptr %113, i64 %27
  %.not = icmp eq i32 %29, 0
  br i1 %.not, label %.loopexit, label %28, !llvm.loop !23

.loopexit:                                        ; preds = %116, %6, %5
  ret void
}